target datalayout = "e-m:e-p270:32:32-p271:32:32-p272:64:64-i64:64-i128:128-f80:128-n8:16:32:64-S128"
target triple = "x86_64-pc-linux-gnu"

%struct.Agraph_s = type { %struct.Agobj_s, %struct.Agdesc_s, %struct._dtlink_s, %struct._dtlink_s, ptr, ptr, ptr, ptr, ptr, ptr, ptr, ptr, ptr }
%struct.Agobj_s = type { %struct.Agtag_s, ptr }
%struct.Agtag_s = type { i32, i64 }
%struct.Agdesc_s = type { i8, [3 x i8] }
%struct._dtlink_s = type { ptr, %union.anon }
%union.anon = type { ptr }
%struct.Agclos_s = type { %struct.Agdisc_s, %struct.Agdstate_s, ptr, [3 x i64], ptr, [3 x ptr], [3 x ptr] }
%struct.Agdisc_s = type { ptr, ptr }
%struct.Agdstate_s = type { ptr }
%struct.Agiodisc_s = type { ptr, ptr, ptr }

@Level = internal global i32 0, align 4
@.str.18 = private unnamed_addr constant [2 x i8] c"\09\00", align 1
@.str.32 = private unnamed_addr constant [3 x i8] c"}\0A\00", align 1

; Function Attrs: nounwind uwtable
define internal i32 @ioput(ptr noundef %0, ptr noundef %1, ptr noundef %2) #0 {
  %4 = alloca ptr, align 8
  %5 = alloca ptr, align 8
  %6 = alloca ptr, align 8
  store ptr %0, ptr %4, align 8
  store ptr %1, ptr %5, align 8
  store ptr %2, ptr %6, align 8
  %7 = load ptr, ptr %4, align 8
  %8 = getelementptr inbounds %struct.Agraph_s, ptr %7, i32 0, i32 12
  %9 = load ptr, ptr %8, align 8
  %10 = getelementptr inbounds %struct.Agclos_s, ptr %9, i32 0, i32 0
  %11 = getelementptr inbounds %struct.Agdisc_s, ptr %10, i32 0, i32 1
  %12 = load ptr, ptr %11, align 8
  %13 = getelementptr inbounds %struct.Agiodisc_s, ptr %12, i32 0, i32 1
  %14 = load ptr, ptr %13, align 8
  %15 = load ptr, ptr %5, align 8
  %16 = load ptr, ptr %6, align 8
  %17 = call i32 %14(ptr noundef %15, ptr noundef %16)
  ret i32 %17
}

; Function Attrs: nounwind uwtable
define internal i32 @indent(ptr noundef %0, ptr noundef %1) #0 {
  %3 = alloca i32, align 4
  %4 = alloca ptr, align 8
  %5 = alloca ptr, align 8
  %6 = alloca i32, align 4
  store ptr %0, ptr %4, align 8
  store ptr %1, ptr %5, align 8
  %7 = load i32, ptr @Level, align 4
  store i32 %7, ptr %6, align 4
  br label %8

8:                                                ; preds = %18, %2
  %9 = load i32, ptr %6, align 4
  %10 = icmp sgt i32 %9, 0
  br i1 %10, label %11, label %21

11:                                               ; preds = %8
  %12 = load ptr, ptr %4, align 8
  %13 = load ptr, ptr %5, align 8
  %14 = call i32 @ioput(ptr noundef %12, ptr noundef %13, ptr noundef @.str.18)
  %15 = icmp eq i32 %14, -1
  br i1 %15, label %16, label %17

16:                                               ; preds = %11
  store i32 -1, ptr %3, align 4
  br label %22

17:                                               ; preds = %11
  br label %18

18:                                               ; preds = %17
  %19 = load i32, ptr %6, align 4
  %20 = add nsw i32 %19, -1
  store i32 %20, ptr %6, align 4
  br label %8

21:                                               ; preds = %8
  store i32 0, ptr %3, align 4
  br label %22

22:                                               ; preds = %21, %16
  %23 = load i32, ptr %3, align 4
  ret i32 %23
}

; Function Attrs: nounwind uwtable
define internal i32 @write_trl(ptr noundef %0, ptr noundef %1) #0 {
  %3 = alloca i32, align 4
  %4 = alloca ptr, align 8
  %5 = alloca ptr, align 8
  store ptr %0, ptr %4, align 8
  store ptr %1, ptr %5, align 8
  %6 = load i32, ptr @Level, align 4
  %7 = add nsw i32 %6, -1
  store i32 %7, ptr @Level, align 4
  %8 = load ptr, ptr %4, align 8
  %9 = load ptr, ptr %5, align 8
  %10 = call i32 @indent(ptr noundef %8, ptr noundef %9)
  %11 = icmp eq i32 %10, -1
  br i1 %11, label %12, label %13

12:                                               ; preds = %2
  store i32 -1, ptr %3, align 4
  br label %20

13:                                               ; preds = %2
  %14 = load ptr, ptr %4, align 8
  %15 = load ptr, ptr %5, align 8
  %16 = call i32 @ioput(ptr noundef %14, ptr noundef %15, ptr noundef @.str.32)
  %17 = icmp eq i32 %16, -1
  br i1 %17, label %18, label %19

18:                                               ; preds = %13
  store i32 -1, ptr %3, align 4
  br label %20

19:                                               ; preds = %13
  store i32 0, ptr %3, align 4
  br label %20

20:                                               ; preds = %19, %18, %12
  %21 = load i32, ptr %3, align 4
  ret i32 %21
}

; Function Attrs: nounwind uwtable
define internal i32 @write_subgs(ptr noundef %0, ptr noundef %1) #0 {
  %3 = alloca i32, align 4
  %4 = alloca ptr, align 8
  %5 = alloca ptr, align 8
  %6 = alloca ptr, align 8
  store ptr %0, ptr %4, align 8
  store ptr %1, ptr %5, align 8
  %7 = load ptr, ptr %4, align 8
  %8 = call ptr @agfstsubg(ptr noundef %7)
  store ptr %8, ptr %6, align 8
  br label %9

9:                                                ; preds = %39, %2
  %10 = load ptr, ptr %6, align 8
  %11 = icmp ne ptr %10, null
  br i1 %11, label %12, label %42

12:                                               ; preds = %9
  %13 = load ptr, ptr %6, align 8
  %14 = call zeroext i1 @irrelevant_subgraph(ptr noundef %13)
  br i1 %14, label %15, label %19

15:                                               ; preds = %12
  %16 = load ptr, ptr %6, align 8
  %17 = load ptr, ptr %5, align 8
  %18 = call i32 @write_subgs(ptr noundef %16, ptr noundef %17)
  br label %38

19:                                               ; preds = %12
  %20 = load ptr, ptr %6, align 8
  %21 = load ptr, ptr %5, align 8
  %22 = call i32 @write_hdr(ptr noundef %20, ptr noundef %21, i1 noundef zeroext false)
  %23 = icmp eq i32 %22, -1
  br i1 %23, label %24, label %25

24:                                               ; preds = %19
  store i32 -1, ptr %3, align 4
  br label %43

25:                                               ; preds = %19
  %26 = load ptr, ptr %6, align 8
  %27 = load ptr, ptr %5, align 8
  %28 = call i32 @write_body(ptr noundef %26, ptr noundef %27)
  %29 = icmp eq i32 %28, -1
  br i1 %29, label %30, label %31

30:                                               ; preds = %25
  store i32 -1, ptr %3, align 4
  br label %43

31:                                               ; preds = %25
  %32 = load ptr, ptr %6, align 8
  %33 = load ptr, ptr %5, align 8
  %34 = call i32 @write_trl(ptr noundef %32, ptr noundef %33)
  %35 = icmp eq i32 %34, -1
  br i1 %35, label %36, label %37

36:                                               ; preds = %31
  store i32 -1, ptr %3, align 4
  br label %43

37:                                               ; preds = %31
  br label %38

38:                                               ; preds = %37, %15
  br label %39

39:                                               ; preds = %38
  %40 = load ptr, ptr %6, align 8
  %41 = call ptr @agnxtsubg(ptr noundef %40)
  store ptr %41, ptr %6, align 8
  br label %9

42:                                               ; preds = %9
  store i32 0, ptr %3, align 4
  br label %43

43:                                               ; preds = %42, %36, %30, %24
  %44 = load i32, ptr %3, align 4
  ret i32 %44
}