; Function Attrs: nounwind uwtable
define internal fastcc range(i32 -1, 1) i32 @write_subgs(ptr noundef %0, ptr noundef %1) unnamed_addr #0 {
  %3 = tail call ptr @agfstsubg(ptr noundef %0) #9
  %.not15 = icmp eq ptr %3, null
  br i1 %.not15, label %write_trl.exit.thread, label %.lr.ph

.lr.ph:                                           ; preds = %2, %29
  %.016 = phi ptr [ %30, %29 ], [ %3, %2 ]
  %4 = tail call fastcc zeroext i1 @irrelevant_subgraph(ptr noundef %.016)
  br i1 %4, label %5, label %7

5:                                                ; preds = %.lr.ph
  %6 = tail call fastcc i32 @write_subgs(ptr noundef nonnull %.016, ptr noundef %1)
  br label %29

7:                                                ; preds = %.lr.ph
  %8 = tail call fastcc i32 @write_hdr(ptr noundef nonnull %.016, ptr noundef %1, i1 noundef zeroext false)
  %9 = icmp eq i32 %8, -1
  br i1 %9, label %write_trl.exit.thread, label %10

10:                                               ; preds = %7
  %11 = tail call fastcc i32 @write_body(ptr noundef nonnull %.016, ptr noundef %1)
  %12 = icmp eq i32 %11, -1
  br i1 %12, label %write_trl.exit.thread, label %13

13:                                               ; preds = %10
  %14 = load i32, ptr @Level, align 4
  %15 = add nsw i32 %14, -1
  store i32 %15, ptr @Level, align 4
  %16 = getelementptr i8, ptr %.016, i64 128
  %17 = icmp sgt i32 %14, 1
  br i1 %17, label %.lr.ph.i.i, label %write_trl.exit

18:                                               ; preds = %.lr.ph.i.i
  %19 = add nsw i32 %.05.i.i, -1
  %20 = icmp sgt i32 %.05.i.i, 1
  br i1 %20, label %.lr.ph.i.i, label %write_trl.exit

.lr.ph.i.i:                                       ; preds = %13, %18
  %.05.i.i = phi i32 [ %19, %18 ], [ %15, %13 ]
  %.val.i.i = load ptr, ptr %16, align 8
  %21 = getelementptr i8, ptr %.val.i.i, i64 8
  %.val.val.i.i = load ptr, ptr %21, align 8
  %22 = getelementptr i8, ptr %.val.val.i.i, i64 8
  %.val.val.val.i.i = load ptr, ptr %22, align 8
  %23 = tail call i32 %.val.val.val.i.i(ptr noundef %1, ptr noundef nonnull @.str.18) #9
  %24 = icmp eq i32 %23, -1
  br i1 %24, label %write_trl.exit.thread, label %18

write_trl.exit:                                   ; preds = %18, %13
  %.val.i = load ptr, ptr %16, align 8
  %25 = getelementptr i8, ptr %.val.i, i64 8
  %.val.val.i = load ptr, ptr %25, align 8
  %26 = getelementptr i8, ptr %.val.val.i, i64 8
  %.val.val.val.i = load ptr, ptr %26, align 8
  %27 = tail call i32 %.val.val.val.i(ptr noundef %1, ptr noundef nonnull @.str.32) #9
  %28 = icmp eq i32 %27, -1
  br i1 %28, label %write_trl.exit.thread, label %29

29:                                               ; preds = %5, %write_trl.exit
  %30 = tail call ptr @agnxtsubg(ptr noundef nonnull %.016) #9
  %.not = icmp eq ptr %30, null
  br i1 %.not, label %write_trl.exit.thread, label %.lr.ph

write_trl.exit.thread:                            ; preds = %7, %10, %write_trl.exit, %29, %.lr.ph.i.i, %2
  %.012 = phi i32 [ 0, %2 ], [ -1, %.lr.ph.i.i ], [ -1, %7 ], [ -1, %10 ], [ -1, %write_trl.exit ], [ 0, %29 ]
  ret i32 %.012
}